#include <math.h>
#include <stdio.h>
#include <stdlib.h>
#include <string.h>


main()
{int a[100][100]={0},b[100][100]={0},c[100][100]={0},i,o,q,j,k,J,K,v,w,m,p,n;
 scanf("%d %d",&m,&p);
 for(j=0;j<m;j++)
  {for(k=0;k<p;k++)
     scanf("%d",&a[j][k]);}
     
 scanf("%d %d",&p,&n) ;
 for(J=0;J<p;J++)
  {for(K=0;K<n;K++)
     scanf("%d",&b[J][K]);}
for(i=0;i<m;i++)
{for(o=0;o<n;o++)
 {for(q=0;q<p;q++)
 c[i][o]=c[i][o]+a[i][q]*b[q][o];}}   
 for(v=0;v<m;v++)
 {for(w=0;w<n-1;w++)
   printf("%d ",c[v][w]);
  if(w==n-1)
  printf("%d\n",c[v][w]);}
    
      }