; ModuleID = '63/1507.c'
source_filename = "63/1507.c"
target datalayout = "e-m:e-p270:32:32-p271:32:32-p272:64:64-i64:64-f80:128-n8:16:32:64-S128"
target triple = "x86_64-pc-linux-gnu"

@.str = private unnamed_addr constant [6 x i8] c"%d %d\00", align 1
@.str.1 = private unnamed_addr constant [3 x i8] c"%d\00", align 1
@.str.2 = private unnamed_addr constant [4 x i8] c"%d \00", align 1
@.str.3 = private unnamed_addr constant [4 x i8] c"%d\0A\00", align 1

; Function Attrs: noinline nounwind uwtable
define dso_local i32 @main() #0 {
  %1 = alloca i32, align 4
  %2 = alloca [100 x [100 x i32]], align 16
  %3 = alloca [100 x [100 x i32]], align 16
  %4 = alloca [100 x [100 x i32]], align 16
  %5 = alloca i32, align 4
  %6 = alloca i32, align 4
  %7 = alloca i32, align 4
  %8 = alloca i32, align 4
  %9 = alloca i32, align 4
  %10 = alloca i32, align 4
  %11 = alloca i32, align 4
  %12 = alloca i32, align 4
  %13 = alloca i32, align 4
  %14 = alloca i32, align 4
  %15 = alloca i32, align 4
  %16 = alloca i32, align 4
  store i32 0, i32* %1, align 4
  %17 = bitcast [100 x [100 x i32]]* %2 to i8*
  call void @llvm.memset.p0i8.i64(i8* align 16 %17, i8 0, i64 40000, i1 false)
  %18 = bitcast [100 x [100 x i32]]* %3 to i8*
  call void @llvm.memset.p0i8.i64(i8* align 16 %18, i8 0, i64 40000, i1 false)
  %19 = bitcast [100 x [100 x i32]]* %4 to i8*
  call void @llvm.memset.p0i8.i64(i8* align 16 %19, i8 0, i64 40000, i1 false)
  %20 = call i32 (i8*, ...) @__isoc99_scanf(i8* getelementptr inbounds ([6 x i8], [6 x i8]* @.str, i64 0, i64 0), i32* %14, i32* %15)
  store i32 0, i32* %8, align 4
  br label %21

21:                                               ; preds = %42, %0
  %22 = load i32, i32* %8, align 4
  %23 = load i32, i32* %14, align 4
  %24 = icmp slt i32 %22, %23
  br i1 %24, label %25, label %45

25:                                               ; preds = %21
  store i32 0, i32* %9, align 4
  br label %26

26:                                               ; preds = %38, %25
  %27 = load i32, i32* %9, align 4
  %28 = load i32, i32* %15, align 4
  %29 = icmp slt i32 %27, %28
  br i1 %29, label %30, label %41

30:                                               ; preds = %26
  %31 = load i32, i32* %8, align 4
  %32 = sext i32 %31 to i64
  %33 = getelementptr inbounds [100 x [100 x i32]], [100 x [100 x i32]]* %2, i64 0, i64 %32
  %34 = load i32, i32* %9, align 4
  %35 = sext i32 %34 to i64
  %36 = getelementptr inbounds [100 x i32], [100 x i32]* %33, i64 0, i64 %35
  %37 = call i32 (i8*, ...) @__isoc99_scanf(i8* getelementptr inbounds ([3 x i8], [3 x i8]* @.str.1, i64 0, i64 0), i32* %36)
  br label %38

38:                                               ; preds = %30
  %39 = load i32, i32* %9, align 4
  %40 = add nsw i32 %39, 1
  store i32 %40, i32* %9, align 4
  br label %26

41:                                               ; preds = %26
  br label %42

42:                                               ; preds = %41
  %43 = load i32, i32* %8, align 4
  %44 = add nsw i32 %43, 1
  store i32 %44, i32* %8, align 4
  br label %21

45:                                               ; preds = %21
  %46 = call i32 (i8*, ...) @__isoc99_scanf(i8* getelementptr inbounds ([6 x i8], [6 x i8]* @.str, i64 0, i64 0), i32* %15, i32* %16)
  store i32 0, i32* %10, align 4
  br label %47

47:                                               ; preds = %68, %45
  %48 = load i32, i32* %10, align 4
  %49 = load i32, i32* %15, align 4
  %50 = icmp slt i32 %48, %49
  br i1 %50, label %51, label %71

51:                                               ; preds = %47
  store i32 0, i32* %11, align 4
  br label %52

52:                                               ; preds = %64, %51
  %53 = load i32, i32* %11, align 4
  %54 = load i32, i32* %16, align 4
  %55 = icmp slt i32 %53, %54
  br i1 %55, label %56, label %67

56:                                               ; preds = %52
  %57 = load i32, i32* %10, align 4
  %58 = sext i32 %57 to i64
  %59 = getelementptr inbounds [100 x [100 x i32]], [100 x [100 x i32]]* %3, i64 0, i64 %58
  %60 = load i32, i32* %11, align 4
  %61 = sext i32 %60 to i64
  %62 = getelementptr inbounds [100 x i32], [100 x i32]* %59, i64 0, i64 %61
  %63 = call i32 (i8*, ...) @__isoc99_scanf(i8* getelementptr inbounds ([3 x i8], [3 x i8]* @.str.1, i64 0, i64 0), i32* %62)
  br label %64

64:                                               ; preds = %56
  %65 = load i32, i32* %11, align 4
  %66 = add nsw i32 %65, 1
  store i32 %66, i32* %11, align 4
  br label %52

67:                                               ; preds = %52
  br label %68

68:                                               ; preds = %67
  %69 = load i32, i32* %10, align 4
  %70 = add nsw i32 %69, 1
  store i32 %70, i32* %10, align 4
  br label %47

71:                                               ; preds = %47
  store i32 0, i32* %5, align 4
  br label %72

72:                                               ; preds = %124, %71
  %73 = load i32, i32* %5, align 4
  %74 = load i32, i32* %14, align 4
  %75 = icmp slt i32 %73, %74
  br i1 %75, label %76, label %127

76:                                               ; preds = %72
  store i32 0, i32* %6, align 4
  br label %77

77:                                               ; preds = %120, %76
  %78 = load i32, i32* %6, align 4
  %79 = load i32, i32* %16, align 4
  %80 = icmp slt i32 %78, %79
  br i1 %80, label %81, label %123

81:                                               ; preds = %77
  store i32 0, i32* %7, align 4
  br label %82

82:                                               ; preds = %116, %81
  %83 = load i32, i32* %7, align 4
  %84 = load i32, i32* %15, align 4
  %85 = icmp slt i32 %83, %84
  br i1 %85, label %86, label %119

86:                                               ; preds = %82
  %87 = load i32, i32* %5, align 4
  %88 = sext i32 %87 to i64
  %89 = getelementptr inbounds [100 x [100 x i32]], [100 x [100 x i32]]* %4, i64 0, i64 %88
  %90 = load i32, i32* %6, align 4
  %91 = sext i32 %90 to i64
  %92 = getelementptr inbounds [100 x i32], [100 x i32]* %89, i64 0, i64 %91
  %93 = load i32, i32* %92, align 4
  %94 = load i32, i32* %5, align 4
  %95 = sext i32 %94 to i64
  %96 = getelementptr inbounds [100 x [100 x i32]], [100 x [100 x i32]]* %2, i64 0, i64 %95
  %97 = load i32, i32* %7, align 4
  %98 = sext i32 %97 to i64
  %99 = getelementptr inbounds [100 x i32], [100 x i32]* %96, i64 0, i64 %98
  %100 = load i32, i32* %99, align 4
  %101 = load i32, i32* %7, align 4
  %102 = sext i32 %101 to i64
  %103 = getelementptr inbounds [100 x [100 x i32]], [100 x [100 x i32]]* %3, i64 0, i64 %102
  %104 = load i32, i32* %6, align 4
  %105 = sext i32 %104 to i64
  %106 = getelementptr inbounds [100 x i32], [100 x i32]* %103, i64 0, i64 %105
  %107 = load i32, i32* %106, align 4
  %108 = mul nsw i32 %100, %107
  %109 = add nsw i32 %93, %108
  %110 = load i32, i32* %5, align 4
  %111 = sext i32 %110 to i64
  %112 = getelementptr inbounds [100 x [100 x i32]], [100 x [100 x i32]]* %4, i64 0, i64 %111
  %113 = load i32, i32* %6, align 4
  %114 = sext i32 %113 to i64
  %115 = getelementptr inbounds [100 x i32], [100 x i32]* %112, i64 0, i64 %114
  store i32 %109, i32* %115, align 4
  br label %116

116:                                              ; preds = %86
  %117 = load i32, i32* %7, align 4
  %118 = add nsw i32 %117, 1
  store i32 %118, i32* %7, align 4
  br label %82

119:                                              ; preds = %82
  br label %120

120:                                              ; preds = %119
  %121 = load i32, i32* %6, align 4
  %122 = add nsw i32 %121, 1
  store i32 %122, i32* %6, align 4
  br label %77

123:                                              ; preds = %77
  br label %124

124:                                              ; preds = %123
  %125 = load i32, i32* %5, align 4
  %126 = add nsw i32 %125, 1
  store i32 %126, i32* %5, align 4
  br label %72

127:                                              ; preds = %72
  store i32 0, i32* %12, align 4
  br label %128

128:                                              ; preds = %165, %127
  %129 = load i32, i32* %12, align 4
  %130 = load i32, i32* %14, align 4
  %131 = icmp slt i32 %129, %130
  br i1 %131, label %132, label %168

132:                                              ; preds = %128
  store i32 0, i32* %13, align 4
  br label %133

133:                                              ; preds = %147, %132
  %134 = load i32, i32* %13, align 4
  %135 = load i32, i32* %16, align 4
  %136 = sub nsw i32 %135, 1
  %137 = icmp slt i32 %134, %136
  br i1 %137, label %138, label %150

138:                                              ; preds = %133
  %139 = load i32, i32* %12, align 4
  %140 = sext i32 %139 to i64
  %141 = getelementptr inbounds [100 x [100 x i32]], [100 x [100 x i32]]* %4, i64 0, i64 %140
  %142 = load i32, i32* %13, align 4
  %143 = sext i32 %142 to i64
  %144 = getelementptr inbounds [100 x i32], [100 x i32]* %141, i64 0, i64 %143
  %145 = load i32, i32* %144, align 4
  %146 = call i32 (i8*, ...) @printf(i8* getelementptr inbounds ([4 x i8], [4 x i8]* @.str.2, i64 0, i64 0), i32 %145)
  br label %147

147:                                              ; preds = %138
  %148 = load i32, i32* %13, align 4
  %149 = add nsw i32 %148, 1
  store i32 %149, i32* %13, align 4
  br label %133

150:                                              ; preds = %133
  %151 = load i32, i32* %13, align 4
  %152 = load i32, i32* %16, align 4
  %153 = sub nsw i32 %152, 1
  %154 = icmp eq i32 %151, %153
  br i1 %154, label %155, label %164

155:                                              ; preds = %150
  %156 = load i32, i32* %12, align 4
  %157 = sext i32 %156 to i64
  %158 = getelementptr inbounds [100 x [100 x i32]], [100 x [100 x i32]]* %4, i64 0, i64 %157
  %159 = load i32, i32* %13, align 4
  %160 = sext i32 %159 to i64
  %161 = getelementptr inbounds [100 x i32], [100 x i32]* %158, i64 0, i64 %160
  %162 = load i32, i32* %161, align 4
  %163 = call i32 (i8*, ...) @printf(i8* getelementptr inbounds ([4 x i8], [4 x i8]* @.str.3, i64 0, i64 0), i32 %162)
  br label %164

164:                                              ; preds = %155, %150
  br label %165

165:                                              ; preds = %164
  %166 = load i32, i32* %12, align 4
  %167 = add nsw i32 %166, 1
  store i32 %167, i32* %12, align 4
  br label %128

168:                                              ; preds = %128
  %169 = load i32, i32* %1, align 4
  ret i32 %169
}

; Function Attrs: argmemonly nounwind willreturn
declare void @llvm.memset.p0i8.i64(i8* nocapture writeonly, i8, i64, i1 immarg) #1

declare dso_local i32 @__isoc99_scanf(i8*, ...) #2

declare dso_local i32 @printf(i8*, ...) #2


!llvm.module.flags = !{!0}
!llvm.ident = !{!1}

!0 = !{i32 1, !"wchar_size", i32 4}
!1 = !{!"clang version 10.0.0-4ubuntu1 "}
